; Function Attrs: nounwind uwtable
define hidden noundef zeroext i1 @_mi_os_unprotect(ptr noundef %addr, i64 noundef %size) local_unnamed_addr #1 {
entry:
  %cmp1.i.i.i = icmp eq i64 %size, 0
  %cmp2.i.i.i = icmp eq ptr %addr, null
  %or.cond.i.i.i = or i1 %cmp2.i.i.i, %cmp1.i.i.i
  br i1 %or.cond.i.i.i, label %mi_os_protectx.exit, label %if.end4.i.i.i

if.end4.i.i.i:                                    ; preds = %entry
  %0 = load i64, ptr @mi_os_mem_config, align 8
  %1 = ptrtoint ptr %addr to i64
  %2 = tail call range(i64 0, 65) i64 @llvm.ctpop.i64(i64 %0)
  %cmp.i.i.i.i.i = icmp samesign ult i64 %2, 2
  %sub.i.i.i.i.i = add i64 %1, -1
  %add.i.i.i.i.i = add i64 %sub.i.i.i.i.i, %0
  %add.ptr42.i.i.i = getelementptr inbounds i8, ptr %addr, i64 %size
  %3 = ptrtoint ptr %add.ptr42.i.i.i to i64
  br i1 %cmp.i.i.i.i.i, label %if.then.i.i24.i.i.i, label %if.else.i.i21.i.i.i

if.then.i.i24.i.i.i:                              ; preds = %if.end4.i.i.i
  %not.i.i.i.i.i = sub i64 0, %0
  %and1.i.i.i.i.i = and i64 %add.i.i.i.i.i, %not.i.i.i.i.i
  %and1.i.i26.i.i.i = and i64 %not.i.i.i.i.i, %3
  br label %cond.end16.i.i.i

if.else.i.i21.i.i.i:                              ; preds = %if.end4.i.i.i
  %4 = urem i64 %add.i.i.i.i.i, %0
  %mul.i.i.i.i.i = sub nuw i64 %add.i.i.i.i.i, %4
  %5 = urem i64 %3, %0
  %mul.i.i22.i.i.i = sub nuw i64 %3, %5
  br label %cond.end16.i.i.i

cond.end16.i.i.i:                                 ; preds = %if.else.i.i21.i.i.i, %if.then.i.i24.i.i.i
  %cond39.in.i.i.i = phi i64 [ %and1.i.i.i.i.i, %if.then.i.i24.i.i.i ], [ %mul.i.i.i.i.i, %if.else.i.i21.i.i.i ]
  %cond17.in.i.i.i = phi i64 [ %and1.i.i26.i.i.i, %if.then.i.i24.i.i.i ], [ %mul.i.i22.i.i.i, %if.else.i.i21.i.i.i ]
  %sub.ptr.sub.i.i.i = sub i64 %cond17.in.i.i.i, %cond39.in.i.i.i
  %cmp18.i.i.i = icmp slt i64 %sub.ptr.sub.i.i.i, 1
  br i1 %cmp18.i.i.i, label %mi_os_protectx.exit, label %if.end.i

if.end.i:                                         ; preds = %cond.end16.i.i.i
  %cond39.i.i.i = inttoptr i64 %cond39.in.i.i.i to ptr
  %call1.i = tail call i32 @_mi_prim_protect(ptr noundef %cond39.i.i.i, i64 noundef %sub.ptr.sub.i.i.i, i1 noundef zeroext false) #7
  %cmp2.not.i = icmp eq i32 %call1.i, 0
  br i1 %cmp2.not.i, label %mi_os_protectx.exit, label %if.then3.i

if.then3.i:                                       ; preds = %if.end.i
  tail call void (ptr, ...) @_mi_warning_message(ptr noundef nonnull @.str.10, ptr noundef nonnull @.str.12, i32 noundef %call1.i, i32 noundef %call1.i, ptr noundef %cond39.i.i.i, i64 noundef %sub.ptr.sub.i.i.i) #7
  br label %mi_os_protectx.exit

mi_os_protectx.exit:                              ; preds = %entry, %cond.end16.i.i.i, %if.end.i, %if.then3.i
  %retval.0.i = phi i1 [ false, %if.then3.i ], [ true, %if.end.i ], [ false, %entry ], [ false, %cond.end16.i.i.i ]
  ret i1 %retval.0.i
}